; Function Attrs: mustprogress uwtable
define noundef nonnull ptr @_ZN5faiss17read_index_binaryEPKci(ptr noundef %0, i32 noundef %1) local_unnamed_addr #3 personality ptr @__gxx_personality_v0 {
  %3 = alloca %"struct.faiss::FileIOReader", align 8
  call void @llvm.lifetime.start.p0(i64 56, ptr nonnull %3) #27
  call void @_ZN5faiss12FileIOReaderC1EPKc(ptr noundef nonnull align 8 dereferenceable(49) %3, ptr noundef %0)
  %4 = invoke noundef ptr @_ZN5faiss17read_index_binaryEPNS_8IOReaderEi(ptr noundef nonnull %3, i32 noundef %1)
          to label %5 unwind label %6

5:                                                ; preds = %2
  call void @_ZN5faiss12FileIOReaderD1Ev(ptr noundef nonnull align 8 dereferenceable(49) %3) #27
  call void @llvm.lifetime.end.p0(i64 56, ptr nonnull %3) #27
  ret ptr %4

6:                                                ; preds = %2
  %7 = landingpad { ptr, i32 }
          cleanup
  call void @_ZN5faiss12FileIOReaderD1Ev(ptr noundef nonnull align 8 dereferenceable(49) %3) #27
  call void @llvm.lifetime.end.p0(i64 56, ptr nonnull %3) #27
  resume { ptr, i32 } %7
}